target datalayout = "e-m:e-p270:32:32-p271:32:32-p272:64:64-i64:64-i128:128-f80:128-n8:16:32:64-S128"
target triple = "x86_64-pc-linux-gnu"

%struct.SDL_HIDAPI_Device = type { ptr, ptr, ptr, ptr, i16, i16, i16, ptr, %struct.SDL_GUID, i32, i32, i32, i32, i16, i16, i8, i32, i32, i32, ptr, ptr, ptr, ptr, %struct.SDL_AtomicInt, i32, ptr, i8, i8, i8, ptr, i32, ptr, ptr }
%struct.SDL_GUID = type { [16 x i8] }
%struct.SDL_AtomicInt = type { i32 }

@__const.HIDAPI_DriverLuna_RumbleJoystick.rumble_packet = private unnamed_addr constant [9 x i8] c"\03\0F\00\00\00\00\FF\00\EB", align 1
@.str.3 = private unnamed_addr constant [28 x i8] c"Couldn't send rumble packet\00", align 1
@.str.4 = private unnamed_addr constant [32 x i8] c"That operation is not supported\00", align 1

; Function Attrs: nounwind uwtable
define internal zeroext i1 @HIDAPI_DriverLuna_RumbleJoystick(ptr noundef %0, ptr noundef %1, i16 noundef zeroext %2, i16 noundef zeroext %3) #0 {
  %5 = alloca i1, align 1
  %6 = alloca ptr, align 8
  %7 = alloca ptr, align 8
  %8 = alloca i16, align 2
  %9 = alloca i16, align 2
  %10 = alloca [9 x i8], align 1
  %11 = alloca i32, align 4
  store ptr %0, ptr %6, align 8
  store ptr %1, ptr %7, align 8
  store i16 %2, ptr %8, align 2
  store i16 %3, ptr %9, align 2
  %12 = load ptr, ptr %6, align 8
  %13 = getelementptr inbounds nuw %struct.SDL_HIDAPI_Device, ptr %12, i32 0, i32 5
  %14 = load i16, ptr %13, align 2
  %15 = zext i16 %14 to i32
  %16 = icmp eq i32 %15, 1049
  br i1 %16, label %17, label %37

17:                                               ; preds = %4
  call void @llvm.lifetime.start.p0(i64 9, ptr %10) #6
  call void @llvm.memcpy.p0.p0.i64(ptr align 1 %10, ptr align 1 @__const.HIDAPI_DriverLuna_RumbleJoystick.rumble_packet, i64 9, i1 false)
  %18 = load i16, ptr %8, align 2
  %19 = zext i16 %18 to i32
  %20 = sdiv i32 %19, 655
  %21 = trunc i32 %20 to i8
  %22 = getelementptr inbounds [9 x i8], ptr %10, i64 0, i64 4
  store i8 %21, ptr %22, align 1
  %23 = load i16, ptr %9, align 2
  %24 = zext i16 %23 to i32
  %25 = sdiv i32 %24, 655
  %26 = trunc i32 %25 to i8
  %27 = getelementptr inbounds [9 x i8], ptr %10, i64 0, i64 5
  store i8 %26, ptr %27, align 1
  %28 = load ptr, ptr %6, align 8
  %29 = getelementptr inbounds [9 x i8], ptr %10, i64 0, i64 0
  %30 = call i32 @SDL_HIDAPI_SendRumble(ptr noundef %28, ptr noundef %29, i32 noundef 9)
  %31 = sext i32 %30 to i64
  %32 = icmp ne i64 %31, 9
  br i1 %32, label %33, label %35

33:                                               ; preds = %17
  %34 = call zeroext i1 (ptr, ...) @SDL_SetError_REAL(ptr noundef @.str.3)
  store i1 %34, ptr %5, align 1
  store i32 1, ptr %11, align 4
  br label %36

35:                                               ; preds = %17
  store i1 true, ptr %5, align 1
  store i32 1, ptr %11, align 4
  br label %36

36:                                               ; preds = %35, %33
  call void @llvm.lifetime.end.p0(i64 9, ptr %10) #6
  br label %39

37:                                               ; preds = %4
  %38 = call zeroext i1 (ptr, ...) @SDL_SetError_REAL(ptr noundef @.str.4)
  store i1 %38, ptr %5, align 1
  br label %39

39:                                               ; preds = %37, %36
  %40 = load i1, ptr %5, align 1
  ret i1 %40
}