; Function Attrs: nounwind uwtable
define internal zeroext i1 @HIDAPI_DriverLuna_RumbleJoystick(ptr noundef %0, ptr readnone captures(none) %1, i16 noundef zeroext %2, i16 noundef zeroext %3) #0 {
  %5 = alloca [9 x i8], align 1
  %6 = getelementptr inbounds nuw i8, ptr %0, i64 34
  %7 = load i16, ptr %6, align 2
  %8 = icmp eq i16 %7, 1049
  br i1 %8, label %9, label %20

9:                                                ; preds = %4
  call void @llvm.lifetime.start.p0(i64 9, ptr nonnull %5) #9
  call void @llvm.memcpy.p0.p0.i64(ptr noundef nonnull align 1 dereferenceable(9) %5, ptr noundef nonnull align 1 dereferenceable(9) @__const.HIDAPI_DriverLuna_RumbleJoystick.rumble_packet, i64 9, i1 false)
  %10 = udiv i16 %2, 655
  %11 = trunc nuw nsw i16 %10 to i8
  %12 = getelementptr inbounds nuw i8, ptr %5, i64 4
  store i8 %11, ptr %12, align 1
  %13 = udiv i16 %3, 655
  %14 = trunc nuw nsw i16 %13 to i8
  %15 = getelementptr inbounds nuw i8, ptr %5, i64 5
  store i8 %14, ptr %15, align 1
  %16 = call i32 @SDL_HIDAPI_SendRumble(ptr noundef nonnull %0, ptr noundef nonnull %5, i32 noundef 9) #9
  %.not = icmp eq i32 %16, 9
  br i1 %.not, label %19, label %17

17:                                               ; preds = %9
  %18 = call zeroext i1 (ptr, ...) @SDL_SetError_REAL(ptr noundef nonnull @.str.3) #9
  br label %19

19:                                               ; preds = %9, %17
  %.0 = phi i1 [ %18, %17 ], [ true, %9 ]
  call void @llvm.lifetime.end.p0(i64 9, ptr nonnull %5) #9
  br label %22

20:                                               ; preds = %4
  %21 = tail call zeroext i1 (ptr, ...) @SDL_SetError_REAL(ptr noundef nonnull @.str.4) #9
  br label %22

22:                                               ; preds = %20, %19
  %.1 = phi i1 [ %.0, %19 ], [ %21, %20 ]
  ret i1 %.1
}